target datalayout = "e-m:e-p270:32:32-p271:32:32-p272:64:64-i64:64-i128:128-f80:128-n8:16:32:64-S128"
target triple = "x86_64-pc-linux-gnu"

@.str = private unnamed_addr constant [103 x i8] c"generated/home/dtcxzyw/WorkSpace/Projects/compilers/llvm-opt-benchmark/bench/hdf5/hdf5/src/H5Rdeprec.c\00", align 1
@H5E_CANTINIT_g = external global i64, align 8
@H5E_ARGS_g = external global i64, align 8
@H5E_BADTYPE_g = external global i64, align 8
@.str.5 = private unnamed_addr constant [28 x i8] c"invalid location identifier\00", align 1
@H5E_REFERENCE_g = external global i64, align 8
@__func__.H5R__encode_token_region_compat = private unnamed_addr constant [32 x i8] c"H5R__encode_token_region_compat\00", align 1
@.str.35 = private unnamed_addr constant [50 x i8] c"Invalid amount of space for serializing selection\00", align 1
@H5E_NOSPACE_g = external global i64, align 8
@.str.36 = private unnamed_addr constant [25 x i8] c"memory allocation failed\00", align 1
@H5E_CANTCOPY_g = external global i64, align 8
@.str.37 = private unnamed_addr constant [30 x i8] c"Unable to serialize selection\00", align 1

; Function Attrs: nounwind uwtable
define internal i32 @H5R__encode_token_region_compat(ptr noundef %0, ptr noundef %1, i64 noundef %2, ptr noundef %3, ptr noundef %4, ptr noundef %5) #0 {
  %7 = alloca ptr, align 8
  %8 = alloca ptr, align 8
  %9 = alloca i64, align 8
  %10 = alloca ptr, align 8
  %11 = alloca ptr, align 8
  %12 = alloca ptr, align 8
  %13 = alloca i64, align 8
  %14 = alloca ptr, align 8
  %15 = alloca i32, align 4
  %16 = alloca i8, align 1
  %17 = alloca i64, align 8
  %18 = alloca ptr, align 8
  store ptr %0, ptr %7, align 8
  store ptr %1, ptr %8, align 8
  store i64 %2, ptr %9, align 8
  store ptr %3, ptr %10, align 8
  store ptr %4, ptr %11, align 8
  store ptr %5, ptr %12, align 8
  store ptr null, ptr %14, align 8
  store i32 0, ptr %15, align 4
  store i8 0, ptr %16, align 1
  %19 = load ptr, ptr %7, align 8
  %20 = call i32 @H5R__encode_heap(ptr noundef %19, ptr noundef null, ptr noundef %13, ptr noundef null, i64 noundef 0)
  %21 = icmp slt i32 %20, 0
  br i1 %21, label %22, label %37

22:                                               ; preds = %6
  br label %23

23:                                               ; preds = %22
  br label %24

24:                                               ; preds = %23
  br label %25

25:                                               ; preds = %24
  %26 = load i64, ptr @H5E_ARGS_g, align 8
  %27 = load i64, ptr @H5E_BADTYPE_g, align 8
  %28 = call i32 (ptr, ptr, i32, i64, i64, ptr, ...) @H5E_printf_stack(ptr noundef @.str, ptr noundef @__func__.H5R__encode_token_region_compat, i32 noundef 184, i64 noundef %26, i64 noundef %27, ptr noundef @.str.5)
  br label %29

29:                                               ; preds = %25
  store i8 1, ptr %16, align 1
  %30 = load i8, ptr %16, align 1
  %31 = trunc i8 %30 to i1
  %32 = zext i1 %31 to i8
  store i8 %32, ptr %16, align 1
  br label %33

33:                                               ; preds = %29
  br label %34

34:                                               ; preds = %33
  store i32 -1, ptr %15, align 4
  br label %143

35:                                               ; No predecessors!
  br label %36

36:                                               ; preds = %35
  br label %37

37:                                               ; preds = %36, %6
  %38 = load ptr, ptr %11, align 8
  %39 = icmp ne ptr %38, null
  br i1 %39, label %40, label %140

40:                                               ; preds = %37
  %41 = load ptr, ptr %12, align 8
  %42 = load i64, ptr %41, align 8
  %43 = load i64, ptr %13, align 8
  %44 = icmp uge i64 %42, %43
  br i1 %44, label %45, label %140

45:                                               ; preds = %40
  %46 = load ptr, ptr %7, align 8
  %47 = call i32 @H5CX_set_libver_bounds(ptr noundef %46)
  %48 = load ptr, ptr %11, align 8
  %49 = load i64, ptr %13, align 8
  call void @llvm.memset.p0.i64(ptr align 1 %48, i8 0, i64 %49, i1 false)
  %50 = load ptr, ptr %10, align 8
  %51 = call i64 @H5S_select_serial_size(ptr noundef %50)
  store i64 %51, ptr %17, align 8
  %52 = icmp slt i64 %51, 0
  br i1 %52, label %53, label %68

53:                                               ; preds = %45
  br label %54

54:                                               ; preds = %53
  br label %55

55:                                               ; preds = %54
  br label %56

56:                                               ; preds = %55
  %57 = load i64, ptr @H5E_REFERENCE_g, align 8
  %58 = load i64, ptr @H5E_CANTINIT_g, align 8
  %59 = call i32 (ptr, ptr, i32, i64, i64, ptr, ...) @H5E_printf_stack(ptr noundef @.str, ptr noundef @__func__.H5R__encode_token_region_compat, i32 noundef 202, i64 noundef %57, i64 noundef %58, ptr noundef @.str.35)
  br label %60

60:                                               ; preds = %56
  store i8 1, ptr %16, align 1
  %61 = load i8, ptr %16, align 1
  %62 = trunc i8 %61 to i1
  %63 = zext i1 %62 to i8
  store i8 %63, ptr %16, align 1
  br label %64

64:                                               ; preds = %60
  br label %65

65:                                               ; preds = %64
  store i32 -1, ptr %15, align 4
  br label %143

66:                                               ; No predecessors!
  br label %67

67:                                               ; preds = %66
  br label %68

68:                                               ; preds = %67, %45
  %69 = load i64, ptr %9, align 8
  %70 = load i64, ptr %17, align 8
  %71 = add nsw i64 %70, %69
  store i64 %71, ptr %17, align 8
  %72 = load i64, ptr %17, align 8
  %73 = call noalias ptr @malloc(i64 noundef %72) #6
  store ptr %73, ptr %14, align 8
  %74 = icmp eq ptr null, %73
  br i1 %74, label %75, label %90

75:                                               ; preds = %68
  br label %76

76:                                               ; preds = %75
  br label %77

77:                                               ; preds = %76
  br label %78

78:                                               ; preds = %77
  %79 = load i64, ptr @H5E_REFERENCE_g, align 8
  %80 = load i64, ptr @H5E_NOSPACE_g, align 8
  %81 = call i32 (ptr, ptr, i32, i64, i64, ptr, ...) @H5E_printf_stack(ptr noundef @.str, ptr noundef @__func__.H5R__encode_token_region_compat, i32 noundef 210, i64 noundef %79, i64 noundef %80, ptr noundef @.str.36)
  br label %82

82:                                               ; preds = %78
  store i8 1, ptr %16, align 1
  %83 = load i8, ptr %16, align 1
  %84 = trunc i8 %83 to i1
  %85 = zext i1 %84 to i8
  store i8 %85, ptr %16, align 1
  br label %86

86:                                               ; preds = %82
  br label %87

87:                                               ; preds = %86
  store i32 -1, ptr %15, align 4
  br label %143

88:                                               ; No predecessors!
  br label %89

89:                                               ; preds = %88
  br label %90

90:                                               ; preds = %89, %68
  %91 = load ptr, ptr %14, align 8
  store ptr %91, ptr %18, align 8
  %92 = load ptr, ptr %18, align 8
  %93 = load ptr, ptr %8, align 8
  %94 = load i64, ptr %9, align 8
  call void @llvm.memcpy.p0.p0.i64(ptr align 1 %92, ptr align 1 %93, i64 %94, i1 false)
  %95 = load i64, ptr %9, align 8
  %96 = load ptr, ptr %18, align 8
  %97 = getelementptr inbounds i8, ptr %96, i64 %95
  store ptr %97, ptr %18, align 8
  %98 = load ptr, ptr %10, align 8
  %99 = call i32 @H5S_select_serialize(ptr noundef %98, ptr noundef %18)
  %100 = icmp slt i32 %99, 0
  br i1 %100, label %101, label %116

101:                                              ; preds = %90
  br label %102

102:                                              ; preds = %101
  br label %103

103:                                              ; preds = %102
  br label %104

104:                                              ; preds = %103
  %105 = load i64, ptr @H5E_REFERENCE_g, align 8
  %106 = load i64, ptr @H5E_CANTCOPY_g, align 8
  %107 = call i32 (ptr, ptr, i32, i64, i64, ptr, ...) @H5E_printf_stack(ptr noundef @.str, ptr noundef @__func__.H5R__encode_token_region_compat, i32 noundef 219, i64 noundef %105, i64 noundef %106, ptr noundef @.str.37)
  br label %108

108:                                              ; preds = %104
  store i8 1, ptr %16, align 1
  %109 = load i8, ptr %16, align 1
  %110 = trunc i8 %109 to i1
  %111 = zext i1 %110 to i8
  store i8 %111, ptr %16, align 1
  br label %112

112:                                              ; preds = %108
  br label %113

113:                                              ; preds = %112
  store i32 -1, ptr %15, align 4
  br label %143

114:                                              ; No predecessors!
  br label %115

115:                                              ; preds = %114
  br label %116

116:                                              ; preds = %115, %90
  %117 = load ptr, ptr %7, align 8
  %118 = load ptr, ptr %11, align 8
  %119 = load ptr, ptr %12, align 8
  %120 = load ptr, ptr %14, align 8
  %121 = load i64, ptr %17, align 8
  %122 = call i32 @H5R__encode_heap(ptr noundef %117, ptr noundef %118, ptr noundef %119, ptr noundef %120, i64 noundef %121)
  %123 = icmp slt i32 %122, 0
  br i1 %123, label %124, label %139

124:                                              ; preds = %116
  br label %125

125:                                              ; preds = %124
  br label %126

126:                                              ; preds = %125
  br label %127

127:                                              ; preds = %126
  %128 = load i64, ptr @H5E_ARGS_g, align 8
  %129 = load i64, ptr @H5E_BADTYPE_g, align 8
  %130 = call i32 (ptr, ptr, i32, i64, i64, ptr, ...) @H5E_printf_stack(ptr noundef @.str, ptr noundef @__func__.H5R__encode_token_region_compat, i32 noundef 223, i64 noundef %128, i64 noundef %129, ptr noundef @.str.5)
  br label %131

131:                                              ; preds = %127
  store i8 1, ptr %16, align 1
  %132 = load i8, ptr %16, align 1
  %133 = trunc i8 %132 to i1
  %134 = zext i1 %133 to i8
  store i8 %134, ptr %16, align 1
  br label %135

135:                                              ; preds = %131
  br label %136

136:                                              ; preds = %135
  store i32 -1, ptr %15, align 4
  br label %143

137:                                              ; No predecessors!
  br label %138

138:                                              ; preds = %137
  br label %139

139:                                              ; preds = %138, %116
  br label %140

140:                                              ; preds = %139, %40, %37
  %141 = load i64, ptr %13, align 8
  %142 = load ptr, ptr %12, align 8
  store i64 %141, ptr %142, align 8
  br label %143

143:                                              ; preds = %140, %136, %113, %87, %65, %34
  %144 = load ptr, ptr %14, align 8
  call void @free(ptr noundef %144) #7
  %145 = load i32, ptr %15, align 4
  ret i32 %145
}