; Function Attrs: nounwind uwtable
define internal fastcc range(i32 -1, 1) i32 @H5R__encode_token_region_compat(ptr noundef %0, ptr nocapture noundef readonly %1, i64 noundef %2, ptr noundef %3, ptr noundef %4, ptr noundef %5) unnamed_addr #0 {
  %7 = alloca i64, align 8
  %8 = alloca ptr, align 8
  %9 = call i32 @H5R__encode_heap(ptr noundef %0, ptr noundef null, ptr noundef nonnull %7, ptr noundef null, i64 noundef 0) #6
  %10 = icmp slt i32 %9, 0
  br i1 %10, label %11, label %15

11:                                               ; preds = %6
  %12 = load i64, ptr @H5E_ARGS_g, align 8
  %13 = load i64, ptr @H5E_BADTYPE_g, align 8
  %14 = call i32 (ptr, ptr, i32, i64, i64, ptr, ...) @H5E_printf_stack(ptr noundef nonnull @.str, ptr noundef nonnull @__func__.H5R__encode_token_region_compat, i32 noundef 184, i64 noundef %12, i64 noundef %13, ptr noundef nonnull @.str.5) #6
  br label %52

15:                                               ; preds = %6
  %16 = load i64, ptr %5, align 8
  %17 = load i64, ptr %7, align 8
  %.not = icmp ult i64 %16, %17
  br i1 %.not, label %50, label %18

18:                                               ; preds = %15
  %19 = call i32 @H5CX_set_libver_bounds(ptr noundef %0) #6
  %20 = load i64, ptr %7, align 8
  call void @llvm.memset.p0.i64(ptr align 1 %4, i8 0, i64 %20, i1 false)
  %21 = call i64 @H5S_select_serial_size(ptr noundef %3) #6
  %22 = icmp slt i64 %21, 0
  br i1 %22, label %23, label %27

23:                                               ; preds = %18
  %24 = load i64, ptr @H5E_REFERENCE_g, align 8
  %25 = load i64, ptr @H5E_CANTINIT_g, align 8
  %26 = call i32 (ptr, ptr, i32, i64, i64, ptr, ...) @H5E_printf_stack(ptr noundef nonnull @.str, ptr noundef nonnull @__func__.H5R__encode_token_region_compat, i32 noundef 202, i64 noundef %24, i64 noundef %25, ptr noundef nonnull @.str.35) #6
  br label %52

27:                                               ; preds = %18
  %28 = add nsw i64 %21, %2
  %29 = call noalias ptr @malloc(i64 noundef %28) #7
  %30 = icmp eq ptr %29, null
  br i1 %30, label %31, label %35

31:                                               ; preds = %27
  %32 = load i64, ptr @H5E_REFERENCE_g, align 8
  %33 = load i64, ptr @H5E_NOSPACE_g, align 8
  %34 = call i32 (ptr, ptr, i32, i64, i64, ptr, ...) @H5E_printf_stack(ptr noundef nonnull @.str, ptr noundef nonnull @__func__.H5R__encode_token_region_compat, i32 noundef 210, i64 noundef %32, i64 noundef %33, ptr noundef nonnull @.str.36) #6
  br label %52

35:                                               ; preds = %27
  call void @llvm.memcpy.p0.p0.i64(ptr nonnull align 1 %29, ptr align 1 %1, i64 %2, i1 false)
  %36 = getelementptr inbounds i8, ptr %29, i64 %2
  store ptr %36, ptr %8, align 8
  %37 = call i32 @H5S_select_serialize(ptr noundef %3, ptr noundef nonnull %8) #6
  %38 = icmp slt i32 %37, 0
  br i1 %38, label %39, label %43

39:                                               ; preds = %35
  %40 = load i64, ptr @H5E_REFERENCE_g, align 8
  %41 = load i64, ptr @H5E_CANTCOPY_g, align 8
  %42 = call i32 (ptr, ptr, i32, i64, i64, ptr, ...) @H5E_printf_stack(ptr noundef nonnull @.str, ptr noundef nonnull @__func__.H5R__encode_token_region_compat, i32 noundef 219, i64 noundef %40, i64 noundef %41, ptr noundef nonnull @.str.37) #6
  br label %52

43:                                               ; preds = %35
  %44 = call i32 @H5R__encode_heap(ptr noundef %0, ptr noundef %4, ptr noundef nonnull %5, ptr noundef nonnull %29, i64 noundef %28) #6
  %45 = icmp slt i32 %44, 0
  br i1 %45, label %46, label %._crit_edge

._crit_edge:                                      ; preds = %43
  %.pre = load i64, ptr %7, align 8
  br label %50

46:                                               ; preds = %43
  %47 = load i64, ptr @H5E_ARGS_g, align 8
  %48 = load i64, ptr @H5E_BADTYPE_g, align 8
  %49 = call i32 (ptr, ptr, i32, i64, i64, ptr, ...) @H5E_printf_stack(ptr noundef nonnull @.str, ptr noundef nonnull @__func__.H5R__encode_token_region_compat, i32 noundef 223, i64 noundef %47, i64 noundef %48, ptr noundef nonnull @.str.5) #6
  br label %52

50:                                               ; preds = %._crit_edge, %15
  %51 = phi i64 [ %.pre, %._crit_edge ], [ %17, %15 ]
  %.026 = phi ptr [ %29, %._crit_edge ], [ null, %15 ]
  store i64 %51, ptr %5, align 8
  br label %52

52:                                               ; preds = %50, %46, %39, %31, %23, %11
  %.1 = phi ptr [ null, %11 ], [ null, %23 ], [ null, %31 ], [ %29, %39 ], [ %29, %46 ], [ %.026, %50 ]
  %.0 = phi i32 [ -1, %11 ], [ -1, %23 ], [ -1, %31 ], [ -1, %39 ], [ -1, %46 ], [ 0, %50 ]
  call void @free(ptr noundef %.1) #6
  ret i32 %.0
}